(lp0
S'pioreq'
p1
aS'siincu'
p2
aS'dmusiidata'
p3
aS'reqtot'
p4
aS'piowcrd'
p5
aS'monacknack'
p6
aS'grant'
p7
a.(dp0
I2
(S'reqtot'
p1
S'monacknack'
p2
tp3
sI3
(g1
g2
S'grant'
p4
tp5
sI4
(g1
S'piowcrd'
p6
g2
g4
tp7
sI5
(S'siincu'
p8
g1
g6
g2
g4
tp9
s.