(lp0
S'pcxl2tdata'
p1
aS'mcul2tack'
p2
aS'l2tcpxreq'
p3
aS'dmusiidata'
p4
aS'mcul2tdata'
p5
aS'pcxl2t'
p6
aS'siil2t'
p7
aS'l2bsio'
p8
aS'siodmu'
p9
aS'l2tcpxdata'
p10
aS'cpxl2t'
p11
aS'l2tmcu'
p12
a.(dp0
I2
(S'pcxl2tdata'
p1
S'siil2t'
p2
tp3
sI3
(g1
S'l2tcpxreq'
p4
g2
tp5
sI4
(g1
g4
S'pcxl2t'
p6
g2
tp7
sI5
(g1
g4
g6
g2
S'cpxl2t'
p8
tp9
sI6
(g1
g4
g6
g2
S'l2bsio'
p10
g8
tp11
sI7
(S'mcul2tack'
p12
g4
g6
g2
g10
S'l2tcpxdata'
p13
g8
tp14
sI8
(g1
g12
g4
g6
g2
g10
g8
S'l2tmcu'
p15
tp16
s.