(lp0
S'pioreq'
p1
aS'reqtot'
p2
aS'dmusiidata'
p3
aS'grant'
p4
aS'monacknack'
p5
aS'siincu'
p6
aS'niusiidata'
p7
aS'piowcrd'
p8
a.(dp0
I2
(S'monacknack'
p1
S'piowcrd'
p2
tp3
sI3
(S'grant'
p4
g1
g2
tp5
sI4
(S'reqtot'
p6
g4
g1
g2
tp7
s.